

Microchip Technology PIC LITE Macro Assembler V1.30 build 55553 
                                                                                               Tue May 20 15:13:23 2014

Microchip Technology Omniscient Code Generator (Lite mode) build 55553
     1                           	processor	16F1823
     2                           	opt	pw 120
     3                           	opt	lm
     4                           	psect	idataBANK0,global,class=CODE,delta=2
     5                           	psect	stringtext,global,reloc=256,class=STRCODE,delta=2
     6                           	psect	cinit,global,class=CODE,merge=1,delta=2
     7                           	psect	bssCOMMON,global,class=COMMON,space=1,delta=1
     8                           	psect	bssBANK0,global,class=BANK0,space=1,delta=1
     9                           	psect	dataBANK0,global,class=BANK0,space=1,delta=1
    10                           	psect	bssBANK1,global,class=BANK1,space=1,delta=1
    11                           	psect	clrtext,global,class=CODE,delta=2
    12                           	psect	inittext,global,class=CODE,delta=2
    13                           	psect	cstackCOMMON,global,class=COMMON,space=1,delta=1
    14                           	psect	cstackBANK0,global,class=BANK0,space=1,delta=1
    15                           	psect	maintext,global,class=CODE,merge=1,split=1,delta=2
    16                           	psect	text1,local,class=CODE,merge=1,delta=2
    17                           	psect	text2,local,class=CODE,merge=1,delta=2
    18                           	psect	text3,local,class=CODE,merge=1,delta=2
    19                           	psect	text4,local,class=CODE,merge=1,delta=2
    20                           	psect	intentry,global,class=CODE,delta=2
    21                           	psect	text6,local,class=CODE,merge=1,delta=2
    22                           	dabs	1,0x7E,2
    23  0000                     	;# 
    24  0001                     	;# 
    25  0002                     	;# 
    26  0003                     	;# 
    27  0004                     	;# 
    28  0005                     	;# 
    29  0006                     	;# 
    30  0007                     	;# 
    31  0008                     	;# 
    32  0009                     	;# 
    33  000A                     	;# 
    34  000B                     	;# 
    35  000C                     	;# 
    36  000E                     	;# 
    37  0011                     	;# 
    38  0012                     	;# 
    39  0015                     	;# 
    40  0016                     	;# 
    41  0016                     	;# 
    42  0017                     	;# 
    43  0018                     	;# 
    44  0019                     	;# 
    45  001A                     	;# 
    46  001B                     	;# 
    47  001C                     	;# 
    48  001E                     	;# 
    49  001F                     	;# 
    50  008C                     	;# 
    51  008E                     	;# 
    52  0091                     	;# 
    53  0092                     	;# 
    54  0095                     	;# 
    55  0096                     	;# 
    56  0097                     	;# 
    57  0098                     	;# 
    58  0099                     	;# 
    59  009A                     	;# 
    60  009B                     	;# 
    61  009B                     	;# 
    62  009C                     	;# 
    63  009D                     	;# 
    64  009E                     	;# 
    65  010C                     	;# 
    66  010E                     	;# 
    67  0111                     	;# 
    68  0112                     	;# 
    69  0113                     	;# 
    70  0114                     	;# 
    71  0115                     	;# 
    72  0116                     	;# 
    73  0117                     	;# 
    74  0118                     	;# 
    75  0119                     	;# 
    76  011A                     	;# 
    77  011B                     	;# 
    78  011D                     	;# 
    79  011D                     	;# 
    80  018C                     	;# 
    81  018E                     	;# 
    82  0191                     	;# 
    83  0191                     	;# 
    84  0192                     	;# 
    85  0193                     	;# 
    86  0193                     	;# 
    87  0193                     	;# 
    88  0194                     	;# 
    89  0195                     	;# 
    90  0196                     	;# 
    91  0199                     	;# 
    92  019A                     	;# 
    93  019B                     	;# 
    94  019B                     	;# 
    95  019B                     	;# 
    96  019B                     	;# 
    97  019C                     	;# 
    98  019C                     	;# 
    99  019D                     	;# 
   100  019E                     	;# 
   101  019F                     	;# 
   102  020C                     	;# 
   103  020E                     	;# 
   104  0211                     	;# 
   105  0211                     	;# 
   106  0212                     	;# 
   107  0212                     	;# 
   108  0213                     	;# 
   109  0213                     	;# 
   110  0214                     	;# 
   111  0214                     	;# 
   112  0215                     	;# 
   113  0215                     	;# 
   114  0215                     	;# 
   115  0216                     	;# 
   116  0216                     	;# 
   117  0217                     	;# 
   118  0217                     	;# 
   119  0291                     	;# 
   120  0291                     	;# 
   121  0292                     	;# 
   122  0293                     	;# 
   123  0294                     	;# 
   124  0295                     	;# 
   125  0295                     	;# 
   126  0296                     	;# 
   127  0391                     	;# 
   128  0392                     	;# 
   129  0393                     	;# 
   130  039A                     	;# 
   131  039C                     	;# 
   132  039D                     	;# 
   133  039E                     	;# 
   134  039F                     	;# 
   135  0FE4                     	;# 
   136  0FE5                     	;# 
   137  0FE6                     	;# 
   138  0FE7                     	;# 
   139  0FE8                     	;# 
   140  0FE9                     	;# 
   141  0FEA                     	;# 
   142  0FEB                     	;# 
   143  0FED                     	;# 
   144  0FEE                     	;# 
   145  0FEF                     	;# 
   146  0000                     	;# 
   147  0001                     	;# 
   148  0002                     	;# 
   149  0003                     	;# 
   150  0004                     	;# 
   151  0005                     	;# 
   152  0006                     	;# 
   153  0007                     	;# 
   154  0008                     	;# 
   155  0009                     	;# 
   156  000A                     	;# 
   157  000B                     	;# 
   158  000C                     	;# 
   159  000E                     	;# 
   160  0011                     	;# 
   161  0012                     	;# 
   162  0015                     	;# 
   163  0016                     	;# 
   164  0016                     	;# 
   165  0017                     	;# 
   166  0018                     	;# 
   167  0019                     	;# 
   168  001A                     	;# 
   169  001B                     	;# 
   170  001C                     	;# 
   171  001E                     	;# 
   172  001F                     	;# 
   173  008C                     	;# 
   174  008E                     	;# 
   175  0091                     	;# 
   176  0092                     	;# 
   177  0095                     	;# 
   178  0096                     	;# 
   179  0097                     	;# 
   180  0098                     	;# 
   181  0099                     	;# 
   182  009A                     	;# 
   183  009B                     	;# 
   184  009B                     	;# 
   185  009C                     	;# 
   186  009D                     	;# 
   187  009E                     	;# 
   188  010C                     	;# 
   189  010E                     	;# 
   190  0111                     	;# 
   191  0112                     	;# 
   192  0113                     	;# 
   193  0114                     	;# 
   194  0115                     	;# 
   195  0116                     	;# 
   196  0117                     	;# 
   197  0118                     	;# 
   198  0119                     	;# 
   199  011A                     	;# 
   200  011B                     	;# 
   201  011D                     	;# 
   202  011D                     	;# 
   203  018C                     	;# 
   204  018E                     	;# 
   205  0191                     	;# 
   206  0191                     	;# 
   207  0192                     	;# 
   208  0193                     	;# 
   209  0193                     	;# 
   210  0193                     	;# 
   211  0194                     	;# 
   212  0195                     	;# 
   213  0196                     	;# 
   214  0199                     	;# 
   215  019A                     	;# 
   216  019B                     	;# 
   217  019B                     	;# 
   218  019B                     	;# 
   219  019B                     	;# 
   220  019C                     	;# 
   221  019C                     	;# 
   222  019D                     	;# 
   223  019E                     	;# 
   224  019F                     	;# 
   225  020C                     	;# 
   226  020E                     	;# 
   227  0211                     	;# 
   228  0211                     	;# 
   229  0212                     	;# 
   230  0212                     	;# 
   231  0213                     	;# 
   232  0213                     	;# 
   233  0214                     	;# 
   234  0214                     	;# 
   235  0215                     	;# 
   236  0215                     	;# 
   237  0215                     	;# 
   238  0216                     	;# 
   239  0216                     	;# 
   240  0217                     	;# 
   241  0217                     	;# 
   242  0291                     	;# 
   243  0291                     	;# 
   244  0292                     	;# 
   245  0293                     	;# 
   246  0294                     	;# 
   247  0295                     	;# 
   248  0295                     	;# 
   249  0296                     	;# 
   250  0391                     	;# 
   251  0392                     	;# 
   252  0393                     	;# 
   253  039A                     	;# 
   254  039C                     	;# 
   255  039D                     	;# 
   256  039E                     	;# 
   257  039F                     	;# 
   258  0FE4                     	;# 
   259  0FE5                     	;# 
   260  0FE6                     	;# 
   261  0FE7                     	;# 
   262  0FE8                     	;# 
   263  0FE9                     	;# 
   264  0FEA                     	;# 
   265  0FEB                     	;# 
   266  0FED                     	;# 
   267  0FEE                     	;# 
   268  0FEF                     	;# 
   269  0000                     	;# 
   270  0001                     	;# 
   271  0002                     	;# 
   272  0003                     	;# 
   273  0004                     	;# 
   274  0005                     	;# 
   275  0006                     	;# 
   276  0007                     	;# 
   277  0008                     	;# 
   278  0009                     	;# 
   279  000A                     	;# 
   280  000B                     	;# 
   281  000C                     	;# 
   282  000E                     	;# 
   283  0011                     	;# 
   284  0012                     	;# 
   285  0015                     	;# 
   286  0016                     	;# 
   287  0016                     	;# 
   288  0017                     	;# 
   289  0018                     	;# 
   290  0019                     	;# 
   291  001A                     	;# 
   292  001B                     	;# 
   293  001C                     	;# 
   294  001E                     	;# 
   295  001F                     	;# 
   296  008C                     	;# 
   297  008E                     	;# 
   298  0091                     	;# 
   299  0092                     	;# 
   300  0095                     	;# 
   301  0096                     	;# 
   302  0097                     	;# 
   303  0098                     	;# 
   304  0099                     	;# 
   305  009A                     	;# 
   306  009B                     	;# 
   307  009B                     	;# 
   308  009C                     	;# 
   309  009D                     	;# 
   310  009E                     	;# 
   311  010C                     	;# 
   312  010E                     	;# 
   313  0111                     	;# 
   314  0112                     	;# 
   315  0113                     	;# 
   316  0114                     	;# 
   317  0115                     	;# 
   318  0116                     	;# 
   319  0117                     	;# 
   320  0118                     	;# 
   321  0119                     	;# 
   322  011A                     	;# 
   323  011B                     	;# 
   324  011D                     	;# 
   325  011D                     	;# 
   326  018C                     	;# 
   327  018E                     	;# 
   328  0191                     	;# 
   329  0191                     	;# 
   330  0192                     	;# 
   331  0193                     	;# 
   332  0193                     	;# 
   333  0193                     	;# 
   334  0194                     	;# 
   335  0195                     	;# 
   336  0196                     	;# 
   337  0199                     	;# 
   338  019A                     	;# 
   339  019B                     	;# 
   340  019B                     	;# 
   341  019B                     	;# 
   342  019B                     	;# 
   343  019C                     	;# 
   344  019C                     	;# 
   345  019D                     	;# 
   346  019E                     	;# 
   347  019F                     	;# 
   348  020C                     	;# 
   349  020E                     	;# 
   350  0211                     	;# 
   351  0211                     	;# 
   352  0212                     	;# 
   353  0212                     	;# 
   354  0213                     	;# 
   355  0213                     	;# 
   356  0214                     	;# 
   357  0214                     	;# 
   358  0215                     	;# 
   359  0215                     	;# 
   360  0215                     	;# 
   361  0216                     	;# 
   362  0216                     	;# 
   363  0217                     	;# 
   364  0217                     	;# 
   365  0291                     	;# 
   366  0291                     	;# 
   367  0292                     	;# 
   368  0293                     	;# 
   369  0294                     	;# 
   370  0295                     	;# 
   371  0295                     	;# 
   372  0296                     	;# 
   373  0391                     	;# 
   374  0392                     	;# 
   375  0393                     	;# 
   376  039A                     	;# 
   377  039C                     	;# 
   378  039D                     	;# 
   379  039E                     	;# 
   380  039F                     	;# 
   381  0FE4                     	;# 
   382  0FE5                     	;# 
   383  0FE6                     	;# 
   384  0FE7                     	;# 
   385  0FE8                     	;# 
   386  0FE9                     	;# 
   387  0FEA                     	;# 
   388  0FEB                     	;# 
   389  0FED                     	;# 
   390  0FEE                     	;# 
   391  0FEF                     	;# 
   392                           
   393                           	psect	idataBANK0
   394  0409                     __pidataBANK0:	
   395                           
   396                           ;initializer for _UARTRxBuffer
   397  0409  3442               	retlw	66
   398  040A  3410               	retlw	16
   399  040B  3400               	retlw	0
   400  040C  34EF               	retlw	239
   401  040D  34FF               	retlw	255
   402  040E  34EF               	retlw	239
   403  040F  34FF               	retlw	255
   404  0410  34EF               	retlw	239
   405  0411  34FF               	retlw	255
   406  0412  3455               	retlw	85
   407                           
   408                           ;initializer for _vBCb
   409  0413  347F               	retlw	127
   410                           
   411                           ;initializer for _vBCg
   412  0414  347F               	retlw	127
   413                           
   414                           ;initializer for _vBCr
   415  0415  347F               	retlw	127
   416                           
   417                           	psect	stringtext
   418  0100                     __pstringtext:	
   419  0100                     __stringtab:	
   420  0100  3400               	retlw	0
   421  0101                     __end_of__stringtab:	
   422  0101                     _FadeValue:	
   423  0101  3400               	retlw	0
   424  0102  3400               	retlw	0
   425  0103  3401               	retlw	1
   426  0104  3400               	retlw	0
   427  0105  3401               	retlw	1
   428  0106  3400               	retlw	0
   429  0107  3401               	retlw	1
   430  0108  3400               	retlw	0
   431  0109  3401               	retlw	1
   432  010A  3400               	retlw	0
   433  010B  3401               	retlw	1
   434  010C  3400               	retlw	0
   435  010D  3401               	retlw	1
   436  010E  3400               	retlw	0
   437  010F  3401               	retlw	1
   438  0110  3400               	retlw	0
   439  0111  3401               	retlw	1
   440  0112  3400               	retlw	0
   441  0113  3402               	retlw	2
   442  0114  3400               	retlw	0
   443  0115  3402               	retlw	2
   444  0116  3400               	retlw	0
   445  0117  3402               	retlw	2
   446  0118  3400               	retlw	0
   447  0119  3402               	retlw	2
   448  011A  3400               	retlw	0
   449  011B  3402               	retlw	2
   450  011C  3400               	retlw	0
   451  011D  3402               	retlw	2
   452  011E  3400               	retlw	0
   453  011F  3402               	retlw	2
   454  0120  3400               	retlw	0
   455  0121  3402               	retlw	2
   456  0122  3400               	retlw	0
   457  0123  3402               	retlw	2
   458  0124  3400               	retlw	0
   459  0125  3402               	retlw	2
   460  0126  3400               	retlw	0
   461  0127  3402               	retlw	2
   462  0128  3400               	retlw	0
   463  0129  3402               	retlw	2
   464  012A  3400               	retlw	0
   465  012B  3403               	retlw	3
   466  012C  3400               	retlw	0
   467  012D  3403               	retlw	3
   468  012E  3400               	retlw	0
   469  012F  3403               	retlw	3
   470  0130  3400               	retlw	0
   471  0131  3403               	retlw	3
   472  0132  3400               	retlw	0
   473  0133  3403               	retlw	3
   474  0134  3400               	retlw	0
   475  0135  3403               	retlw	3
   476  0136  3400               	retlw	0
   477  0137  3403               	retlw	3
   478  0138  3400               	retlw	0
   479  0139  3404               	retlw	4
   480  013A  3400               	retlw	0
   481  013B  3404               	retlw	4
   482  013C  3400               	retlw	0
   483  013D  3404               	retlw	4
   484  013E  3400               	retlw	0
   485  013F  3404               	retlw	4
   486  0140  3400               	retlw	0
   487  0141  3404               	retlw	4
   488  0142  3400               	retlw	0
   489  0143  3404               	retlw	4
   490  0144  3400               	retlw	0
   491  0145  3405               	retlw	5
   492  0146  3400               	retlw	0
   493  0147  3405               	retlw	5
   494  0148  3400               	retlw	0
   495  0149  3405               	retlw	5
   496  014A  3400               	retlw	0
   497  014B  3405               	retlw	5
   498  014C  3400               	retlw	0
   499  014D  3405               	retlw	5
   500  014E  3400               	retlw	0
   501  014F  3406               	retlw	6
   502  0150  3400               	retlw	0
   503  0151  3406               	retlw	6
   504  0152  3400               	retlw	0
   505  0153  3406               	retlw	6
   506  0154  3400               	retlw	0
   507  0155  3406               	retlw	6
   508  0156  3400               	retlw	0
   509  0157  3407               	retlw	7
   510  0158  3400               	retlw	0
   511  0159  3407               	retlw	7
   512  015A  3400               	retlw	0
   513  015B  3407               	retlw	7
   514  015C  3400               	retlw	0
   515  015D  3408               	retlw	8
   516  015E  3400               	retlw	0
   517  015F  3408               	retlw	8
   518  0160  3400               	retlw	0
   519  0161  3408               	retlw	8
   520  0162  3400               	retlw	0
   521  0163  3409               	retlw	9
   522  0164  3400               	retlw	0
   523  0165  3409               	retlw	9
   524  0166  3400               	retlw	0
   525  0167  340A               	retlw	10
   526  0168  3400               	retlw	0
   527  0169  340A               	retlw	10
   528  016A  3400               	retlw	0
   529  016B  340A               	retlw	10
   530  016C  3400               	retlw	0
   531  016D  340B               	retlw	11
   532  016E  3400               	retlw	0
   533  016F  340B               	retlw	11
   534  0170  3400               	retlw	0
   535  0171  340C               	retlw	12
   536  0172  3400               	retlw	0
   537  0173  340C               	retlw	12
   538  0174  3400               	retlw	0
   539  0175  340D               	retlw	13
   540  0176  3400               	retlw	0
   541  0177  340D               	retlw	13
   542  0178  3400               	retlw	0
   543  0179  340E               	retlw	14
   544  017A  3400               	retlw	0
   545  017B  340F               	retlw	15
   546  017C  3400               	retlw	0
   547  017D  340F               	retlw	15
   548  017E  3400               	retlw	0
   549  017F  3410               	retlw	16
   550  0180  3400               	retlw	0
   551  0181  3411               	retlw	17
   552  0182  3400               	retlw	0
   553  0183  3411               	retlw	17
   554  0184  3400               	retlw	0
   555  0185  3412               	retlw	18
   556  0186  3400               	retlw	0
   557  0187  3413               	retlw	19
   558  0188  3400               	retlw	0
   559  0189  3414               	retlw	20
   560  018A  3400               	retlw	0
   561  018B  3415               	retlw	21
   562  018C  3400               	retlw	0
   563  018D  3416               	retlw	22
   564  018E  3400               	retlw	0
   565  018F  3417               	retlw	23
   566  0190  3400               	retlw	0
   567  0191  3418               	retlw	24
   568  0192  3400               	retlw	0
   569  0193  3419               	retlw	25
   570  0194  3400               	retlw	0
   571  0195  341A               	retlw	26
   572  0196  3400               	retlw	0
   573  0197  341B               	retlw	27
   574  0198  3400               	retlw	0
   575  0199  341C               	retlw	28
   576  019A  3400               	retlw	0
   577  019B  341D               	retlw	29
   578  019C  3400               	retlw	0
   579  019D  341F               	retlw	31
   580  019E  3400               	retlw	0
   581  019F  3420               	retlw	32
   582  01A0  3400               	retlw	0
   583  01A1  3421               	retlw	33
   584  01A2  3400               	retlw	0
   585  01A3  3423               	retlw	35
   586  01A4  3400               	retlw	0
   587  01A5  3424               	retlw	36
   588  01A6  3400               	retlw	0
   589  01A7  3426               	retlw	38
   590  01A8  3400               	retlw	0
   591  01A9  3428               	retlw	40
   592  01AA  3400               	retlw	0
   593  01AB  3429               	retlw	41
   594  01AC  3400               	retlw	0
   595  01AD  342B               	retlw	43
   596  01AE  3400               	retlw	0
   597  01AF  342D               	retlw	45
   598  01B0  3400               	retlw	0
   599  01B1  342F               	retlw	47
   600  01B2  3400               	retlw	0
   601  01B3  3431               	retlw	49
   602  01B4  3400               	retlw	0
   603  01B5  3434               	retlw	52
   604  01B6  3400               	retlw	0
   605  01B7  3436               	retlw	54
   606  01B8  3400               	retlw	0
   607  01B9  3438               	retlw	56
   608  01BA  3400               	retlw	0
   609  01BB  343B               	retlw	59
   610  01BC  3400               	retlw	0
   611  01BD  343D               	retlw	61
   612  01BE  3400               	retlw	0
   613  01BF  3440               	retlw	64
   614  01C0  3400               	retlw	0
   615  01C1  3443               	retlw	67
   616  01C2  3400               	retlw	0
   617  01C3  3446               	retlw	70
   618  01C4  3400               	retlw	0
   619  01C5  3449               	retlw	73
   620  01C6  3400               	retlw	0
   621  01C7  344C               	retlw	76
   622  01C8  3400               	retlw	0
   623  01C9  344F               	retlw	79
   624  01CA  3400               	retlw	0
   625  01CB  3453               	retlw	83
   626  01CC  3400               	retlw	0
   627  01CD  3457               	retlw	87
   628  01CE  3400               	retlw	0
   629  01CF  345B               	retlw	91
   630  01D0  3400               	retlw	0
   631  01D1  345F               	retlw	95
   632  01D2  3400               	retlw	0
   633  01D3  3463               	retlw	99
   634  01D4  3400               	retlw	0
   635  01D5  3467               	retlw	103
   636  01D6  3400               	retlw	0
   637  01D7  346C               	retlw	108
   638  01D8  3400               	retlw	0
   639  01D9  3470               	retlw	112
   640  01DA  3400               	retlw	0
   641  01DB  3475               	retlw	117
   642  01DC  3400               	retlw	0
   643  01DD  347B               	retlw	123
   644  01DE  3400               	retlw	0
   645  01DF  3480               	retlw	128
   646  01E0  3400               	retlw	0
   647  01E1  3486               	retlw	134
   648  01E2  3400               	retlw	0
   649  01E3  348C               	retlw	140
   650  01E4  3400               	retlw	0
   651  01E5  3492               	retlw	146
   652  01E6  3400               	retlw	0
   653  01E7  3498               	retlw	152
   654  01E8  3400               	retlw	0
   655  01E9  349F               	retlw	159
   656  01EA  3400               	retlw	0
   657  01EB  34A6               	retlw	166
   658  01EC  3400               	retlw	0
   659  01ED  34AD               	retlw	173
   660  01EE  3400               	retlw	0
   661  01EF  34B5               	retlw	181
   662  01F0  3400               	retlw	0
   663  01F1  34BD               	retlw	189
   664  01F2  3400               	retlw	0
   665  01F3  34C5               	retlw	197
   666  01F4  3400               	retlw	0
   667  01F5  34CE               	retlw	206
   668  01F6  3400               	retlw	0
   669  01F7  34D7               	retlw	215
   670  01F8  3400               	retlw	0
   671  01F9  34E1               	retlw	225
   672  01FA  3400               	retlw	0
   673  01FB  34EB               	retlw	235
   674  01FC  3400               	retlw	0
   675  01FD  34F5               	retlw	245
   676  01FE  3400               	retlw	0
   677  01FF  3400               	retlw	0
   678  0200  3401               	retlw	1
   679  0201  340B               	retlw	11
   680  0202  3401               	retlw	1
   681  0203  3417               	retlw	23
   682  0204  3401               	retlw	1
   683  0205  3424               	retlw	36
   684  0206  3401               	retlw	1
   685  0207  3430               	retlw	48
   686  0208  3401               	retlw	1
   687  0209  343E               	retlw	62
   688  020A  3401               	retlw	1
   689  020B  344C               	retlw	76
   690  020C  3401               	retlw	1
   691  020D  345B               	retlw	91
   692  020E  3401               	retlw	1
   693  020F  346A               	retlw	106
   694  0210  3401               	retlw	1
   695  0211  347A               	retlw	122
   696  0212  3401               	retlw	1
   697  0213  348B               	retlw	139
   698  0214  3401               	retlw	1
   699  0215  349C               	retlw	156
   700  0216  3401               	retlw	1
   701  0217  34AF               	retlw	175
   702  0218  3401               	retlw	1
   703  0219  34C2               	retlw	194
   704  021A  3401               	retlw	1
   705  021B  34D6               	retlw	214
   706  021C  3401               	retlw	1
   707  021D  34EA               	retlw	234
   708  021E  3401               	retlw	1
   709  021F  3400               	retlw	0
   710  0220  3402               	retlw	2
   711  0221  3417               	retlw	23
   712  0222  3402               	retlw	2
   713  0223  342E               	retlw	46
   714  0224  3402               	retlw	2
   715  0225  3447               	retlw	71
   716  0226  3402               	retlw	2
   717  0227  3461               	retlw	97
   718  0228  3402               	retlw	2
   719  0229  347C               	retlw	124
   720  022A  3402               	retlw	2
   721  022B  3498               	retlw	152
   722  022C  3402               	retlw	2
   723  022D  34B5               	retlw	181
   724  022E  3402               	retlw	2
   725  022F  34D4               	retlw	212
   726  0230  3402               	retlw	2
   727  0231  34F4               	retlw	244
   728  0232  3402               	retlw	2
   729  0233  3416               	retlw	22
   730  0234  3403               	retlw	3
   731  0235  3439               	retlw	57
   732  0236  3403               	retlw	3
   733  0237  345D               	retlw	93
   734  0238  3403               	retlw	3
   735  0239  3483               	retlw	131
   736  023A  3403               	retlw	3
   737  023B  34AB               	retlw	171
   738  023C  3403               	retlw	3
   739  023D  34D5               	retlw	213
   740  023E  3403               	retlw	3
   741  023F  3400               	retlw	0
   742  0240  3404               	retlw	4
   743  0241  342D               	retlw	45
   744  0242  3404               	retlw	4
   745  0243  345D               	retlw	93
   746  0244  3404               	retlw	4
   747  0245  348E               	retlw	142
   748  0246  3404               	retlw	4
   749  0247  34C2               	retlw	194
   750  0248  3404               	retlw	4
   751  0249  34F8               	retlw	248
   752  024A  3404               	retlw	4
   753  024B  3430               	retlw	48
   754  024C  3405               	retlw	5
   755  024D  346B               	retlw	107
   756  024E  3405               	retlw	5
   757  024F  34A8               	retlw	168
   758  0250  3405               	retlw	5
   759  0251  34E8               	retlw	232
   760  0252  3405               	retlw	5
   761  0253  342B               	retlw	43
   762  0254  3406               	retlw	6
   763  0255  3471               	retlw	113
   764  0256  3406               	retlw	6
   765  0257  34BA               	retlw	186
   766  0258  3406               	retlw	6
   767  0259  3406               	retlw	6
   768  025A  3407               	retlw	7
   769  025B  3456               	retlw	86
   770  025C  3407               	retlw	7
   771  025D  34A9               	retlw	169
   772  025E  3407               	retlw	7
   773  025F  3400               	retlw	0
   774  0260  3408               	retlw	8
   775  0261  345B               	retlw	91
   776  0262  3408               	retlw	8
   777  0263  34B9               	retlw	185
   778  0264  3408               	retlw	8
   779  0265  341C               	retlw	28
   780  0266  3409               	retlw	9
   781  0267  3483               	retlw	131
   782  0268  3409               	retlw	9
   783  0269  34EF               	retlw	239
   784  026A  3409               	retlw	9
   785  026B  3460               	retlw	96
   786  026C  340A               	retlw	10
   787  026D  34D5               	retlw	213
   788  026E  340A               	retlw	10
   789  026F  3450               	retlw	80
   790  0270  340B               	retlw	11
   791  0271  34D1               	retlw	209
   792  0272  340B               	retlw	11
   793  0273  3456               	retlw	86
   794  0274  340C               	retlw	12
   795  0275  34E2               	retlw	226
   796  0276  340C               	retlw	12
   797  0277  3474               	retlw	116
   798  0278  340D               	retlw	13
   799  0279  340D               	retlw	13
   800  027A  340E               	retlw	14
   801  027B  34AC               	retlw	172
   802  027C  340E               	retlw	14
   803  027D  3452               	retlw	82
   804  027E  340F               	retlw	15
   805  027F  3400               	retlw	0
   806  0280  3410               	retlw	16
   807  0281  34B5               	retlw	181
   808  0282  3410               	retlw	16
   809  0283  3473               	retlw	115
   810  0284  3411               	retlw	17
   811  0285  3438               	retlw	56
   812  0286  3412               	retlw	18
   813  0287  3407               	retlw	7
   814  0288  3413               	retlw	19
   815  0289  34DF               	retlw	223
   816  028A  3413               	retlw	19
   817  028B  34C0               	retlw	192
   818  028C  3414               	retlw	20
   819  028D  34AB               	retlw	171
   820  028E  3415               	retlw	21
   821  028F  34A1               	retlw	161
   822  0290  3416               	retlw	22
   823  0291  34A1               	retlw	161
   824  0292  3417               	retlw	23
   825  0293  34AD               	retlw	173
   826  0294  3418               	retlw	24
   827  0295  34C4               	retlw	196
   828  0296  3419               	retlw	25
   829  0297  34E9               	retlw	233
   830  0298  341A               	retlw	26
   831  0299  341A               	retlw	26
   832  029A  341C               	retlw	28
   833  029B  3458               	retlw	88
   834  029C  341D               	retlw	29
   835  029D  34A5               	retlw	165
   836  029E  341E               	retlw	30
   837  029F  3400               	retlw	0
   838  02A0  3420               	retlw	32
   839  02A1  346B               	retlw	107
   840  02A2  3421               	retlw	33
   841  02A3  34E5               	retlw	229
   842  02A4  3422               	retlw	34
   843  02A5  3471               	retlw	113
   844  02A6  3424               	retlw	36
   845  02A7  340E               	retlw	14
   846  02A8  3426               	retlw	38
   847  02A9  34BD               	retlw	189
   848  02AA  3427               	retlw	39
   849  02AB  3480               	retlw	128
   850  02AC  3429               	retlw	41
   851  02AD  3456               	retlw	86
   852  02AE  342B               	retlw	43
   853  02AF  3441               	retlw	65
   854  02B0  342D               	retlw	45
   855  02B1  3442               	retlw	66
   856  02B2  342F               	retlw	47
   857  02B3  345A               	retlw	90
   858  02B4  3431               	retlw	49
   859  02B5  3489               	retlw	137
   860  02B6  3433               	retlw	51
   861  02B7  34D1               	retlw	209
   862  02B8  3435               	retlw	53
   863  02B9  3433               	retlw	51
   864  02BA  3438               	retlw	56
   865  02BB  34B0               	retlw	176
   866  02BC  343A               	retlw	58
   867  02BD  3449               	retlw	73
   868  02BE  343D               	retlw	61
   869  02BF  3400               	retlw	0
   870  02C0  3440               	retlw	64
   871  02C1  34D5               	retlw	213
   872  02C2  3442               	retlw	66
   873  02C3  34CB               	retlw	203
   874  02C4  3445               	retlw	69
   875  02C5  34E2               	retlw	226
   876  02C6  3448               	retlw	72
   877  02C7  341C               	retlw	28
   878  02C8  344C               	retlw	76
   879  02C9  347A               	retlw	122
   880  02CA  344F               	retlw	79
   881  02CB  34FF               	retlw	255
   882  02CC  3452               	retlw	82
   883  02CD  34AC               	retlw	172
   884  02CE  3456               	retlw	86
   885  02CF  3482               	retlw	130
   886  02D0  345A               	retlw	90
   887  02D1  3484               	retlw	132
   888  02D2  345E               	retlw	94
   889  02D3  34B3               	retlw	179
   890  02D4  3462               	retlw	98
   891  02D5  3412               	retlw	18
   892  02D6  3467               	retlw	103
   893  02D7  34A2               	retlw	162
   894  02D8  346B               	retlw	107
   895  02D9  3466               	retlw	102
   896  02DA  3470               	retlw	112
   897  02DB  3460               	retlw	96
   898  02DC  3475               	retlw	117
   899  02DD  3492               	retlw	146
   900  02DE  347A               	retlw	122
   901  02DF  3400               	retlw	0
   902  02E0  3480               	retlw	128
   903  02E1  34AA               	retlw	170
   904  02E2  3485               	retlw	133
   905  02E3  3495               	retlw	149
   906  02E4  348B               	retlw	139
   907  02E5  34C3               	retlw	195
   908  02E6  3491               	retlw	145
   909  02E7  3437               	retlw	55
   910  02E8  3498               	retlw	152
   911  02E9  34F5               	retlw	245
   912  02EA  349E               	retlw	158
   913  02EB  34FE               	retlw	254
   914  02EC  34A5               	retlw	165
   915  02ED  3458               	retlw	88
   916  02EE  34AD               	retlw	173
   917  02EF  3404               	retlw	4
   918  02F0  34B5               	retlw	181
   919  02F1  3408               	retlw	8
   920  02F2  34BD               	retlw	189
   921  02F3  3466               	retlw	102
   922  02F4  34C5               	retlw	197
   923  02F5  3424               	retlw	36
   924  02F6  34CE               	retlw	206
   925  02F7  3444               	retlw	68
   926  02F8  34D7               	retlw	215
   927  02F9  34CC               	retlw	204
   928  02FA  34E0               	retlw	224
   929  02FB  34C0               	retlw	192
   930  02FC  34EA               	retlw	234
   931  02FD  3425               	retlw	37
   932  02FE  34F5               	retlw	245
   933  02FF  34FF               	retlw	255
   934  0300  34FF               	retlw	255
   935  0301                     __end_of_FadeValue:	
   936  000B                     _INTCON	set	11
   937  008D                     _RCIF	set	141
   938  008B                     _SSP1IF	set	139
   939  0099                     _OSCCON	set	153
   940  0091                     _PIE1	set	145
   941  04D3                     _HFIOFL	set	1235
   942  04D6                     _PLLR	set	1238
   943  019F                     _BAUDCON	set	415
   944  0199                     _RCREG	set	409
   945  019D                     _RCSTA	set	413
   946  019C                     _SPBRGH	set	412
   947  019B                     _SPBRGL	set	411
   948  019E                     _TXSTA	set	414
   949  0CEC                     _CREN	set	3308
   950  0211                     _SSP1BUF	set	529
   951  0215                     _SSP1CON1	set	533
   952                           
   953                           ; #config settings
   954  0000                     
   955                           	psect	cinit
   956  0039                     start_initialization:	
   957  0039                     __initialization:	
   958                           
   959                           ; Clear objects allocated to COMMON
   960  0039  01F9               	clrf	__pbssCOMMON& (0+127)
   961  003A  01FA               	clrf	(__pbssCOMMON+1)& (0+127)
   962  003B  01FB               	clrf	(__pbssCOMMON+2)& (0+127)
   963                           
   964                           ; Clear objects allocated to BANK0
   965  003C  3020               	movlw	low __pbssBANK0
   966  003D  0084               	movwf	4
   967  003E  3000               	movlw	high __pbssBANK0
   968  003F  0085               	movwf	5
   969  0040  3020               	movlw	32
   970  0041  2420               	fcall	clear_ram0
   971                           
   972                           ; Clear objects allocated to BANK1
   973  0042  30A0               	movlw	low __pbssBANK1
   974  0043  0084               	movwf	4
   975  0044  3000               	movlw	high __pbssBANK1
   976  0045  0085               	movwf	5
   977  0046  3018               	movlw	24
   978  0047  2420               	fcall	clear_ram0
   979                           
   980                           ; Initialize objects allocated to BANK0
   981  0048  3009               	movlw	low __pidataBANK0
   982  0049  0084               	movwf	4
   983  004A  3084               	movlw	(high __pidataBANK0)| (0+128)
   984  004B  0085               	movwf	5
   985  004C  3050               	movlw	low __pdataBANK0
   986  004D  0086               	movwf	6
   987  004E  3000               	movlw	high __pdataBANK0
   988  004F  0087               	movwf	7
   989  0050  300D               	movlw	13
   990  0051  2426               	fcall	init_ram
   991  0052                     end_of_initialization:	
   992                           ;End of C runtime variable initialization code
   993                           
   994  0052                     __end_of__initialization:	
   995  0052  0020               	movlb	0
   996  0053  2BED               	ljmp	_main	;jump to C main() function
   997                           
   998                           	psect	bssCOMMON
   999  0079                     __pbssCOMMON:	
  1000  0079                     _UARTwriteIndex:	
  1001  0079                     	ds	1
  1002  007A                     _vErrorFlags:	
  1003  007A                     	ds	1
  1004  007B                     _vNewData:	
  1005  007B                     	ds	1
  1006                           
  1007                           	psect	bssBANK0
  1008  0020                     __pbssBANK0:	
  1009  0020                     _SPITxBuffer:	
  1010  0020                     	ds	24
  1011  0038                     _channel_mode:	
  1012  0038                     	ds	8
  1013                           
  1014                           	psect	dataBANK0
  1015  0050                     __pdataBANK0:	
  1016  0050                     _UARTRxBuffer:	
  1017  0050                     	ds	10
  1018  005A                     _vBCb:	
  1019  005A                     	ds	1
  1020  005B                     _vBCg:	
  1021  005B                     	ds	1
  1022  005C                     _vBCr:	
  1023  005C                     	ds	1
  1024                           
  1025                           	psect	bssBANK1
  1026  00A0                     __pbssBANK1:	
  1027  00A0                     _channel_color:	
  1028  00A0                     	ds	24
  1029                           
  1030                           	psect	clrtext
  1031  0420                     clear_ram0:	
  1032                           ;	Called with FSR0 containing the base address, and
  1033                           ;	WREG with the size to clear
  1034                           
  1035  0420  0064               	clrwdt	;clear the watchdog before getting into this loop
  1036  0421                     clrloop0:	
  1037  0421  0180               	clrf	0	;clear RAM location pointed to by FSR
  1038  0422  3101               	addfsr 0,1
  1039  0423  0B89               	decfsz	9,f	;Have we reached the end of clearing yet?
  1040  0424  2C21               	goto	clrloop0	;have we reached the end yet?
  1041  0425  3400               	retlw	0	;all done for this memory range, return
  1042                           
  1043                           	psect	inittext
  1044  0426                     init_ram:	
  1045  0426  00FE               	movwf	126
  1046  0427                     initloop:	
  1047  0427  0012               	moviw fsr0++
  1048  0428  001E               	movwi fsr1++
  1049  0429  0BFE               	decfsz	126,f
  1050  042A  2C27               	goto	initloop
  1051  042B  3400               	retlw	0
  1052                           
  1053                           	psect	cstackCOMMON
  1054  0070                     __pcstackCOMMON:	
  1055  0070                     ?_fPWMControl:	
  1056  0070                     ?_fTLCwrite:	
  1057                           ; 0 bytes @ 0x0
  1058                           
  1059  0070                     ?_main:	
  1060                           ; 0 bytes @ 0x0
  1061                           
  1062  0070                     ?_fSPIWrite:	
  1063                           ; 0 bytes @ 0x0
  1064                           
  1065  0070                     ?_fInterruptRoutine:	
  1066                           ; 0 bytes @ 0x0
  1067                           
  1068  0070                     ?___lbmod:	
  1069                           ; 0 bytes @ 0x0
  1070                           
  1071  0070                     fPWMControl@command:	
  1072                           ; 1 bytes @ 0x0
  1073                           
  1074  0070                     ___lbmod@divisor:	
  1075                           ; 1 bytes @ 0x0
  1076                           
  1077                           
  1078                           ; 1 bytes @ 0x0
  1079  0070                     	ds	1
  1080  0071                     ??___lbmod:	
  1081                           
  1082                           ; 0 bytes @ 0x1
  1083  0071                     	ds	2
  1084  0073                     ___lbmod@dividend:	
  1085                           
  1086                           ; 1 bytes @ 0x3
  1087  0073                     	ds	1
  1088  0074                     ___lbmod@counter:	
  1089                           
  1090                           ; 1 bytes @ 0x4
  1091  0074                     	ds	1
  1092  0075                     ___lbmod@rem:	
  1093                           
  1094                           ; 1 bytes @ 0x5
  1095  0075                     	ds	1
  1096  0076                     ??_fInterruptRoutine:	
  1097                           
  1098                           ; 0 bytes @ 0x6
  1099  0076                     	ds	3
  1100                           
  1101                           	psect	cstackBANK0
  1102  0040                     __pcstackBANK0:	
  1103  0040                     ??_fSPIWrite:	
  1104  0040                     ?___wmul:	
  1105                           ; 0 bytes @ 0x0
  1106                           
  1107  0040                     fSPIWrite@data:	
  1108                           ; 2 bytes @ 0x0
  1109                           
  1110  0040                     ___wmul@multiplier:	
  1111                           ; 1 bytes @ 0x0
  1112                           
  1113                           
  1114                           ; 2 bytes @ 0x0
  1115  0040                     	ds	1
  1116  0041                     ??_fTLCwrite:	
  1117                           
  1118                           ; 0 bytes @ 0x1
  1119  0041                     	ds	1
  1120  0042                     ___wmul@multiplicand:	
  1121                           
  1122                           ; 2 bytes @ 0x2
  1123  0042                     	ds	2
  1124  0044                     ??___wmul:	
  1125  0044                     ___wmul@product:	
  1126                           ; 0 bytes @ 0x4
  1127                           
  1128                           
  1129                           ; 2 bytes @ 0x4
  1130  0044                     	ds	1
  1131  0045                     fTLCwrite@c:	
  1132                           
  1133                           ; 1 bytes @ 0x5
  1134  0045                     	ds	1
  1135  0046                     fTLCwrite@command:	
  1136                           
  1137                           ; 4 bytes @ 0x6
  1138  0046                     	ds	4
  1139  004A                     ??_fPWMControl:	
  1140                           
  1141                           ; 0 bytes @ 0xA
  1142  004A                     	ds	3
  1143  004D                     fPWMControl@channel:	
  1144                           
  1145                           ; 1 bytes @ 0xD
  1146  004D                     	ds	1
  1147  004E                     fPWMControl@n:	
  1148                           
  1149                           ; 1 bytes @ 0xE
  1150  004E                     	ds	1
  1151  004F                     ??_main:	
  1152                           
  1153                           ; 0 bytes @ 0xF
  1154  004F                     	ds	1
  1155                           
  1156                           	psect	maintext
  1157  03ED                     __pmaintext:	
  1158 ;;
  1159 ;;Main: autosize = 0, tempsize = 1, incstack = 0, save=0
  1160 ;;
  1161 ;; *************** function _main *****************
  1162 ;; Defined at:
  1163 ;;		line 36 in file "main.c"
  1164 ;; Parameters:    Size  Location     Type
  1165 ;;		None
  1166 ;; Auto vars:     Size  Location     Type
  1167 ;;		None
  1168 ;; Return value:  Size  Location     Type
  1169 ;;		None               void
  1170 ;; Registers used:
  1171 ;;		wreg, fsr0l, fsr0h, fsr1l, fsr1h, fsr1l, fsr1h, status,2, status,0, btemp+1, pclath, cstack
  1172 ;; Tracked objects:
  1173 ;;		On entry : 17F/0
  1174 ;;		On exit  : 0/0
  1175 ;;		Unchanged: 0/0
  1176 ;; Data sizes:     COMMON   BANK0   BANK1
  1177 ;;      Params:         0       0       0
  1178 ;;      Locals:         0       0       0
  1179 ;;      Temps:          0       1       0
  1180 ;;      Totals:         0       1       0
  1181 ;;Total ram usage:        1 bytes
  1182 ;; Hardware stack levels required when called:    5
  1183 ;; This function calls:
  1184 ;;		_fPWMControl
  1185 ;; This function is called by:
  1186 ;;		Startup code after reset
  1187 ;; This function uses a non-reentrant model
  1188 ;;
  1189                           
  1190                           
  1191                           ;psect for function _main
  1192  03ED                     _main:	
  1193                           
  1194                           ;main.c: 37: OSCCON = 0xF0;
  1195                           
  1196                           ;incstack = 0
  1197                           ; Regs used in _main: [allreg]
  1198  03ED  30F0               	movlw	240
  1199  03EE  0021               	movlb	1	; select bank1
  1200  03EF  0099               	movwf	25	;volatile
  1201  03F0                     l13:	
  1202                           ;main.c: 38: while (!HFIOFL || !PLLR);
  1203                           
  1204  03F0  199A               	btfsc	26,3	;volatile
  1205  03F1  1F1A               	btfss	26,6	;volatile
  1206  03F2  2BF0               	goto	l13
  1207                           
  1208                           ;main.c: 40: fPWMControl(0x10);
  1209  03F3  3010               	movlw	16
  1210  03F4  2387               	fcall	_fPWMControl
  1211                           
  1212                           ;main.c: 41: UARTRxBuffer[2] = 0x01;
  1213  03F5  0020               	movlb	0	; select bank0
  1214  03F6  01D2               	clrf	_UARTRxBuffer+2
  1215  03F7  0AD2               	incf	_UARTRxBuffer+2,f
  1216                           
  1217                           ;main.c: 42: fPWMControl(0x10);
  1218  03F8  3010               	movlw	16
  1219  03F9  2387               	fcall	_fPWMControl
  1220                           
  1221                           ;main.c: 43: UARTRxBuffer[2] = 0x02;
  1222  03FA  3002               	movlw	2
  1223  03FB  0020               	movlb	0	; select bank0
  1224  03FC  00CF               	movwf	??_main
  1225  03FD  084F               	movf	??_main,w
  1226  03FE  00D2               	movwf	_UARTRxBuffer+2
  1227                           
  1228                           ;main.c: 44: fPWMControl(0x10);
  1229  03FF  3010               	movlw	16
  1230  0400  2387               	fcall	_fPWMControl
  1231                           
  1232                           ;main.c: 45: UARTRxBuffer[2] = 0x03;
  1233  0401  3003               	movlw	3
  1234  0402  0020               	movlb	0	; select bank0
  1235  0403  00CF               	movwf	??_main
  1236  0404  084F               	movf	??_main,w
  1237  0405  00D2               	movwf	_UARTRxBuffer+2
  1238                           
  1239                           ;main.c: 46: fPWMControl(0x10);
  1240  0406  3010               	movlw	16
  1241  0407  2387               	fcall	_fPWMControl
  1242  0408                     l16:	
  1243                           ;main.c: 47: while(1);
  1244                           
  1245  0408  2C08               	goto	l16
  1246  0409                     __end_of_main:	
  1247                           
  1248                           	psect	text1
  1249  0387                     __ptext1:	
  1250 ;; *************** function _fPWMControl *****************
  1251 ;; Defined at:
  1252 ;;		line 59 in file "tlc59711_driver.c"
  1253 ;; Parameters:    Size  Location     Type
  1254 ;;  command         1    wreg     unsigned char 
  1255 ;; Auto vars:     Size  Location     Type
  1256 ;;  command         1    0[COMMON] unsigned char 
  1257 ;;  n               1   14[BANK0 ] unsigned char 
  1258 ;;  channel         1   13[BANK0 ] unsigned char 
  1259 ;; Return value:  Size  Location     Type
  1260 ;;		None               void
  1261 ;; Registers used:
  1262 ;;		wreg, fsr1l, fsr1h, status,2, status,0, pclath, cstack
  1263 ;; Tracked objects:
  1264 ;;		On entry : 0/0
  1265 ;;		On exit  : 0/0
  1266 ;;		Unchanged: 0/0
  1267 ;; Data sizes:     COMMON   BANK0   BANK1
  1268 ;;      Params:         0       0       0
  1269 ;;      Locals:         0       2       0
  1270 ;;      Temps:          0       3       0
  1271 ;;      Totals:         0       5       0
  1272 ;;Total ram usage:        5 bytes
  1273 ;; Hardware stack levels used:    1
  1274 ;; Hardware stack levels required when called:    4
  1275 ;; This function calls:
  1276 ;;		___wmul
  1277 ;;		_fTLCwrite
  1278 ;; This function is called by:
  1279 ;;		_main
  1280 ;; This function uses a non-reentrant model
  1281 ;;
  1282                           
  1283                           
  1284                           ;psect for function _fPWMControl
  1285  0387                     _fPWMControl:	
  1286                           
  1287                           ;tlc59711_driver.c: 60: unsigned char channel;
  1288                           ;tlc59711_driver.c: 61: channel = UARTRxBuffer[2];
  1289                           
  1290                           ;incstack = 0
  1291                           ; Regs used in _fPWMControl: [wreg+fsr1l+fsr1h+status,2+status,0+pclath+cstack]
  1292  0387  0020               	movlb	0	; select bank0
  1293  0388  0852               	movf	_UARTRxBuffer+2,w
  1294  0389  00CA               	movwf	??_fPWMControl
  1295  038A  084A               	movf	??_fPWMControl,w
  1296  038B  00CD               	movwf	fPWMControl@channel
  1297                           
  1298                           ;tlc59711_driver.c: 62: if(command & 0xF0 == 0x10){
  1299  038C  0008               	return
  1300  038D                     l764:	
  1301                           ;tlc59711_driver.c: 63: for (unsigned char n = 6; n > 0; n--){
  1302                           
  1303                           
  1304                           ;tlc59711_driver.c: 64: SPITxBuffer[channel*6+n-1] = UARTRxBuffer[n+2];
  1305  038D  084E               	movf	fPWMControl@n,w
  1306  038E  3E02               	addlw	2
  1307  038F  3E50               	addlw	_UARTRxBuffer& (0+255)
  1308  0390  0086               	movwf	6
  1309  0391  0187               	clrf	7
  1310  0392  0801               	movf	1,w
  1311  0393  00CA               	movwf	??_fPWMControl
  1312  0394  084D               	movf	fPWMControl@channel,w
  1313  0395  00CB               	movwf	??_fPWMControl+1
  1314  0396  01CC               	clrf	??_fPWMControl+2
  1315  0397  084B               	movf	??_fPWMControl+1,w
  1316  0398  00C0               	movwf	___wmul@multiplier
  1317  0399  084C               	movf	??_fPWMControl+2,w
  1318  039A  00C1               	movwf	___wmul@multiplier+1
  1319  039B  3006               	movlw	6
  1320  039C  00C2               	movwf	___wmul@multiplicand
  1321  039D  3000               	movlw	0
  1322  039E  00C3               	movwf	___wmul@multiplicand+1
  1323  039F  23CF               	fcall	___wmul
  1324  03A0  0020               	movlb	0	; select bank0
  1325  03A1  0840               	movf	?___wmul,w
  1326  03A2  074E               	addwf	fPWMControl@n,w
  1327  03A3  3EFF               	addlw	255
  1328  03A4  3E20               	addlw	_SPITxBuffer& (0+255)
  1329  03A5  0086               	movwf	6
  1330  03A6  0187               	clrf	7
  1331  03A7  084A               	movf	??_fPWMControl,w
  1332  03A8  0081               	movwf	1
  1333  03A9  3001               	movlw	1
  1334  03AA  02CE               	subwf	fPWMControl@n,f
  1335  03AB  08CE               	movf	fPWMControl@n,f
  1336  03AC  1D03               	skipz
  1337  03AD  2B8D               	goto	l764
  1338                           
  1339                           ;tlc59711_driver.c: 65: }
  1340                           ;tlc59711_driver.c: 66: fTLCwrite();
  1341  03AE  2301               	fcall	_fTLCwrite
  1342  03AF  0008               	return
  1343  03B0                     __end_of_fPWMControl:	
  1344                           
  1345                           	psect	text2
  1346  0301                     __ptext2:	
  1347 ;; *************** function _fTLCwrite *****************
  1348 ;; Defined at:
  1349 ;;		line 73 in file "tlc59711_driver.c"
  1350 ;; Parameters:    Size  Location     Type
  1351 ;;		None
  1352 ;; Auto vars:     Size  Location     Type
  1353 ;;  c               1    5[BANK0 ] char 
  1354 ;;  command         4    6[BANK0 ] unsigned long 
  1355 ;; Return value:  Size  Location     Type
  1356 ;;		None               void
  1357 ;; Registers used:
  1358 ;;		wreg, fsr1l, fsr1h, status,2, status,0, pclath, cstack
  1359 ;; Tracked objects:
  1360 ;;		On entry : 0/0
  1361 ;;		On exit  : 0/0
  1362 ;;		Unchanged: 0/0
  1363 ;; Data sizes:     COMMON   BANK0   BANK1
  1364 ;;      Params:         0       0       0
  1365 ;;      Locals:         0       5       0
  1366 ;;      Temps:          0       4       0
  1367 ;;      Totals:         0       9       0
  1368 ;;Total ram usage:        9 bytes
  1369 ;; Hardware stack levels used:    1
  1370 ;; Hardware stack levels required when called:    3
  1371 ;; This function calls:
  1372 ;;		_fSPIWrite
  1373 ;; This function is called by:
  1374 ;;		_fPWMControl
  1375 ;; This function uses a non-reentrant model
  1376 ;;
  1377                           
  1378                           
  1379                           ;psect for function _fTLCwrite
  1380  0301                     _fTLCwrite:	
  1381                           
  1382                           ;tlc59711_driver.c: 74: unsigned long command;
  1383                           ;tlc59711_driver.c: 77: command = 0x25;
  1384                           
  1385                           ;incstack = 0
  1386                           ; Regs used in _fTLCwrite: [wreg+fsr1l+fsr1h+status,2+status,0+pclath+cstack]
  1387  0301  3000               	movlw	0
  1388  0302  0020               	movlb	0	; select bank0
  1389  0303  00C9               	movwf	fTLCwrite@command+3
  1390  0304  3000               	movlw	0
  1391  0305  00C8               	movwf	fTLCwrite@command+2
  1392  0306  3000               	movlw	0
  1393  0307  00C7               	movwf	fTLCwrite@command+1
  1394  0308  3025               	movlw	37
  1395  0309  00C6               	movwf	fTLCwrite@command
  1396                           
  1397                           ;tlc59711_driver.c: 79: command <<= 5;
  1398  030A  3005               	movlw	5
  1399  030B                     u325:	
  1400  030B  35C6               	lslf	fTLCwrite@command,f
  1401  030C  0DC7               	rlf	fTLCwrite@command+1,f
  1402  030D  0DC8               	rlf	fTLCwrite@command+2,f
  1403  030E  0DC9               	rlf	fTLCwrite@command+3,f
  1404  030F  0B89               	decfsz	9,f
  1405  0310  2B0B               	goto	u325
  1406                           
  1407                           ;tlc59711_driver.c: 81: command |= 0x16;
  1408  0311  3016               	movlw	22
  1409  0312  04C6               	iorwf	fTLCwrite@command,f
  1410  0313  3000               	movlw	0
  1411  0314  04C7               	iorwf	fTLCwrite@command+1,f
  1412  0315  3000               	movlw	0
  1413  0316  04C8               	iorwf	fTLCwrite@command+2,f
  1414  0317  3000               	movlw	0
  1415  0318  04C9               	iorwf	fTLCwrite@command+3,f
  1416                           
  1417                           ;tlc59711_driver.c: 83: command <<= 7;
  1418  0319  3007               	movlw	7
  1419  031A                     u335:	
  1420  031A  35C6               	lslf	fTLCwrite@command,f
  1421  031B  0DC7               	rlf	fTLCwrite@command+1,f
  1422  031C  0DC8               	rlf	fTLCwrite@command+2,f
  1423  031D  0DC9               	rlf	fTLCwrite@command+3,f
  1424  031E  0B89               	decfsz	9,f
  1425  031F  2B1A               	goto	u335
  1426                           
  1427                           ;tlc59711_driver.c: 84: command |= vBCr;
  1428  0320  085C               	movf	_vBCr,w
  1429  0321  04C6               	iorwf	fTLCwrite@command,f
  1430                           
  1431                           ;tlc59711_driver.c: 86: command <<= 7;
  1432  0322  3007               	movlw	7
  1433  0323                     u345:	
  1434  0323  35C6               	lslf	fTLCwrite@command,f
  1435  0324  0DC7               	rlf	fTLCwrite@command+1,f
  1436  0325  0DC8               	rlf	fTLCwrite@command+2,f
  1437  0326  0DC9               	rlf	fTLCwrite@command+3,f
  1438  0327  0B89               	decfsz	9,f
  1439  0328  2B23               	goto	u345
  1440                           
  1441                           ;tlc59711_driver.c: 87: command |= vBCg;
  1442  0329  085B               	movf	_vBCg,w
  1443  032A  04C6               	iorwf	fTLCwrite@command,f
  1444                           
  1445                           ;tlc59711_driver.c: 89: command <<= 7;
  1446  032B  3007               	movlw	7
  1447  032C                     u355:	
  1448  032C  35C6               	lslf	fTLCwrite@command,f
  1449  032D  0DC7               	rlf	fTLCwrite@command+1,f
  1450  032E  0DC8               	rlf	fTLCwrite@command+2,f
  1451  032F  0DC9               	rlf	fTLCwrite@command+3,f
  1452  0330  0B89               	decfsz	9,f
  1453  0331  2B2C               	goto	u355
  1454                           
  1455                           ;tlc59711_driver.c: 90: command |= vBCb;
  1456  0332  085A               	movf	_vBCb,w
  1457  0333  04C6               	iorwf	fTLCwrite@command,f
  1458                           
  1459                           ;tlc59711_driver.c: 93: fSPIWrite(command >> 24);
  1460  0334  0846               	movf	fTLCwrite@command,w
  1461  0335  00C1               	movwf	??_fTLCwrite
  1462  0336  0847               	movf	fTLCwrite@command+1,w
  1463  0337  00C2               	movwf	??_fTLCwrite+1
  1464  0338  0848               	movf	fTLCwrite@command+2,w
  1465  0339  00C3               	movwf	??_fTLCwrite+2
  1466  033A  0849               	movf	fTLCwrite@command+3,w
  1467  033B  00C4               	movwf	??_fTLCwrite+3
  1468  033C  3018               	movlw	24
  1469  033D                     u365:	
  1470  033D  36C4               	lsrf	??_fTLCwrite+3,f
  1471  033E  0CC3               	rrf	??_fTLCwrite+2,f
  1472  033F  0CC2               	rrf	??_fTLCwrite+1,f
  1473  0340  0CC1               	rrf	??_fTLCwrite,f
  1474  0341  0B89               	decfsz	9,f
  1475  0342  2B3D               	goto	u365
  1476  0343  0841               	movf	??_fTLCwrite,w
  1477  0344  2416               	fcall	_fSPIWrite
  1478                           
  1479                           ;tlc59711_driver.c: 94: fSPIWrite(command >> 16);
  1480  0345  0020               	movlb	0	; select bank0
  1481  0346  0846               	movf	fTLCwrite@command,w
  1482  0347  00C1               	movwf	??_fTLCwrite
  1483  0348  0847               	movf	fTLCwrite@command+1,w
  1484  0349  00C2               	movwf	??_fTLCwrite+1
  1485  034A  0848               	movf	fTLCwrite@command+2,w
  1486  034B  00C3               	movwf	??_fTLCwrite+2
  1487  034C  0849               	movf	fTLCwrite@command+3,w
  1488  034D  00C4               	movwf	??_fTLCwrite+3
  1489  034E  3010               	movlw	16
  1490  034F                     u375:	
  1491  034F  36C4               	lsrf	??_fTLCwrite+3,f
  1492  0350  0CC3               	rrf	??_fTLCwrite+2,f
  1493  0351  0CC2               	rrf	??_fTLCwrite+1,f
  1494  0352  0CC1               	rrf	??_fTLCwrite,f
  1495  0353  0B89               	decfsz	9,f
  1496  0354  2B4F               	goto	u375
  1497  0355  0841               	movf	??_fTLCwrite,w
  1498  0356  2416               	fcall	_fSPIWrite
  1499                           
  1500                           ;tlc59711_driver.c: 95: fSPIWrite(command >> 8);
  1501  0357  0020               	movlb	0	; select bank0
  1502  0358  0846               	movf	fTLCwrite@command,w
  1503  0359  00C1               	movwf	??_fTLCwrite
  1504  035A  0847               	movf	fTLCwrite@command+1,w
  1505  035B  00C2               	movwf	??_fTLCwrite+1
  1506  035C  0848               	movf	fTLCwrite@command+2,w
  1507  035D  00C3               	movwf	??_fTLCwrite+2
  1508  035E  0849               	movf	fTLCwrite@command+3,w
  1509  035F  00C4               	movwf	??_fTLCwrite+3
  1510  0360  3008               	movlw	8
  1511  0361                     u385:	
  1512  0361  36C4               	lsrf	??_fTLCwrite+3,f
  1513  0362  0CC3               	rrf	??_fTLCwrite+2,f
  1514  0363  0CC2               	rrf	??_fTLCwrite+1,f
  1515  0364  0CC1               	rrf	??_fTLCwrite,f
  1516  0365  0B89               	decfsz	9,f
  1517  0366  2B61               	goto	u385
  1518  0367  0841               	movf	??_fTLCwrite,w
  1519  0368  2416               	fcall	_fSPIWrite
  1520                           
  1521                           ;tlc59711_driver.c: 96: fSPIWrite(command);
  1522  0369  0020               	movlb	0	; select bank0
  1523  036A  0846               	movf	fTLCwrite@command,w
  1524  036B  2416               	fcall	_fSPIWrite
  1525                           
  1526                           ;tlc59711_driver.c: 99: for (signed char c=11; c >= 0 ; c--) {
  1527  036C  300B               	movlw	11
  1528  036D  0020               	movlb	0	; select bank0
  1529  036E  00C1               	movwf	??_fTLCwrite
  1530  036F  0841               	movf	??_fTLCwrite,w
  1531  0370  00C5               	movwf	fTLCwrite@c
  1532  0371                     L1:	
  1533  0371  1BC5               	btfsc	fTLCwrite@c,7
  1534  0372  0008               	return
  1535                           
  1536                           ;tlc59711_driver.c: 101: fSPIWrite(SPITxBuffer[c*2+1]);
  1537  0373  1403               	setc
  1538  0374  0D45               	rlf	fTLCwrite@c,w
  1539  0375  3E20               	addlw	_SPITxBuffer& (0+255)
  1540  0376  0086               	movwf	6
  1541  0377  0187               	clrf	7
  1542  0378  0801               	movf	1,w
  1543  0379  2416               	fcall	_fSPIWrite
  1544                           
  1545                           ;tlc59711_driver.c: 102: fSPIWrite(SPITxBuffer[c*2]);
  1546  037A  0020               	movlb	0	; select bank0
  1547  037B  3545               	lslf	fTLCwrite@c,w
  1548  037C  3E20               	addlw	_SPITxBuffer& (0+255)
  1549  037D  0086               	movwf	6
  1550  037E  0187               	clrf	7
  1551  037F  0801               	movf	1,w
  1552  0380  2416               	fcall	_fSPIWrite
  1553  0381  30FF               	movlw	-1
  1554  0382  0020               	movlb	0	; select bank0
  1555  0383  00C1               	movwf	??_fTLCwrite
  1556  0384  0841               	movf	??_fTLCwrite,w
  1557  0385  07C5               	addwf	fTLCwrite@c,f
  1558  0386  2B71               	goto	L1
  1559  0387                     __end_of_fTLCwrite:	
  1560                           
  1561                           	psect	text3
  1562  0416                     __ptext3:	
  1563 ;; *************** function _fSPIWrite *****************
  1564 ;; Defined at:
  1565 ;;		line 53 in file "tlc59711_driver.c"
  1566 ;; Parameters:    Size  Location     Type
  1567 ;;  data            1    wreg     unsigned char 
  1568 ;; Auto vars:     Size  Location     Type
  1569 ;;  data            1    0[BANK0 ] unsigned char 
  1570 ;; Return value:  Size  Location     Type
  1571 ;;		None               void
  1572 ;; Registers used:
  1573 ;;		wreg
  1574 ;; Tracked objects:
  1575 ;;		On entry : 0/0
  1576 ;;		On exit  : 0/0
  1577 ;;		Unchanged: 0/0
  1578 ;; Data sizes:     COMMON   BANK0   BANK1
  1579 ;;      Params:         0       0       0
  1580 ;;      Locals:         0       1       0
  1581 ;;      Temps:          0       0       0
  1582 ;;      Totals:         0       1       0
  1583 ;;Total ram usage:        1 bytes
  1584 ;; Hardware stack levels used:    1
  1585 ;; Hardware stack levels required when called:    2
  1586 ;; This function calls:
  1587 ;;		Nothing
  1588 ;; This function is called by:
  1589 ;;		_fTLCwrite
  1590 ;; This function uses a non-reentrant model
  1591 ;;
  1592                           
  1593                           
  1594                           ;psect for function _fSPIWrite
  1595  0416                     _fSPIWrite:	
  1596                           
  1597                           ;incstack = 0
  1598                           ; Regs used in _fSPIWrite: [wreg]
  1599                           ;fSPIWrite@data stored from wreg
  1600  0416  0020               	movlb	0	; select bank0
  1601  0417  00C0               	movwf	fSPIWrite@data
  1602                           
  1603                           ;tlc59711_driver.c: 54: SSP1BUF = data;
  1604  0418  0840               	movf	fSPIWrite@data,w
  1605  0419  0024               	movlb	4	; select bank4
  1606  041A  0091               	movwf	17	;volatile
  1607  041B                     l51:	
  1608                           ;tlc59711_driver.c: 55: while(!SSP1IF);
  1609                           
  1610  041B  0020               	movlb	0	; select bank0
  1611  041C  1D91               	btfss	17,3	;volatile
  1612  041D  2C1B               	goto	l51
  1613                           
  1614                           ;tlc59711_driver.c: 56: SSP1IF = 0;
  1615  041E  1191               	bcf	17,3	;volatile
  1616  041F  0008               	return
  1617  0420                     __end_of_fSPIWrite:	
  1618                           
  1619                           	psect	text4
  1620  03CF                     __ptext4:	
  1621 ;; *************** function ___wmul *****************
  1622 ;; Defined at:
  1623 ;;		line 4 in file "C:\Program Files (x86)\Microchip\xc8\v1.30\sources\common\wmul.c"
  1624 ;; Parameters:    Size  Location     Type
  1625 ;;  multiplier      2    0[BANK0 ] unsigned int 
  1626 ;;  multiplicand    2    2[BANK0 ] unsigned int 
  1627 ;; Auto vars:     Size  Location     Type
  1628 ;;  product         2    4[BANK0 ] unsigned int 
  1629 ;; Return value:  Size  Location     Type
  1630 ;;                  2    0[BANK0 ] unsigned int 
  1631 ;; Registers used:
  1632 ;;		wreg, status,2, status,0
  1633 ;; Tracked objects:
  1634 ;;		On entry : 0/0
  1635 ;;		On exit  : 0/0
  1636 ;;		Unchanged: 0/0
  1637 ;; Data sizes:     COMMON   BANK0   BANK1
  1638 ;;      Params:         0       4       0
  1639 ;;      Locals:         0       2       0
  1640 ;;      Temps:          0       0       0
  1641 ;;      Totals:         0       6       0
  1642 ;;Total ram usage:        6 bytes
  1643 ;; Hardware stack levels used:    1
  1644 ;; Hardware stack levels required when called:    2
  1645 ;; This function calls:
  1646 ;;		Nothing
  1647 ;; This function is called by:
  1648 ;;		_fPWMControl
  1649 ;; This function uses a non-reentrant model
  1650 ;;
  1651                           
  1652                           
  1653                           ;psect for function ___wmul
  1654  03CF                     ___wmul:	
  1655                           
  1656                           ;incstack = 0
  1657                           ; Regs used in ___wmul: [wreg+status,2+status,0]
  1658  03CF  0020               	movlb	0	; select bank0
  1659  03D0  01C4               	clrf	___wmul@product
  1660  03D1  01C5               	clrf	___wmul@product+1
  1661  03D2                     l826:	
  1662  03D2  1C40               	btfss	___wmul@multiplier,0
  1663  03D3  2BD8               	goto	l544
  1664  03D4  0842               	movf	___wmul@multiplicand,w
  1665  03D5  07C4               	addwf	___wmul@product,f
  1666  03D6  0843               	movf	___wmul@multiplicand+1,w
  1667  03D7  3DC5               	addwfc	___wmul@product+1,f
  1668  03D8                     l544:	
  1669  03D8  3001               	movlw	1
  1670  03D9                     u455:	
  1671  03D9  35C2               	lslf	___wmul@multiplicand,f
  1672  03DA  0DC3               	rlf	___wmul@multiplicand+1,f
  1673  03DB  0B89               	decfsz	9,f
  1674  03DC  2BD9               	goto	u455
  1675  03DD  3001               	movlw	1
  1676  03DE                     u465:	
  1677  03DE  36C1               	lsrf	___wmul@multiplier+1,f
  1678  03DF  0CC0               	rrf	___wmul@multiplier,f
  1679  03E0  0B89               	decfsz	9,f
  1680  03E1  2BDE               	goto	u465
  1681  03E2  0841               	movf	___wmul@multiplier+1,w
  1682  03E3  0440               	iorwf	___wmul@multiplier,w
  1683  03E4  1D03               	skipz
  1684  03E5  2BD2               	goto	l826
  1685  03E6  0845               	movf	___wmul@product+1,w
  1686  03E7  01C1               	clrf	?___wmul+1
  1687  03E8  07C1               	addwf	?___wmul+1,f
  1688  03E9  0844               	movf	___wmul@product,w
  1689  03EA  01C0               	clrf	?___wmul
  1690  03EB  07C0               	addwf	?___wmul,f
  1691  03EC  0008               	return
  1692  03ED                     __end_of___wmul:	
  1693                           
  1694                           	psect	intentry
  1695  0004                     __pintentry:	
  1696 ;; *************** function _fInterruptRoutine *****************
  1697 ;; Defined at:
  1698 ;;		line 39 in file "uart.c"
  1699 ;; Parameters:    Size  Location     Type
  1700 ;;		None
  1701 ;; Auto vars:     Size  Location     Type
  1702 ;;		None
  1703 ;; Return value:  Size  Location     Type
  1704 ;;		None               void
  1705 ;; Registers used:
  1706 ;;		wreg, fsr1l, fsr1h, status,2, status,0, pclath, cstack
  1707 ;; Tracked objects:
  1708 ;;		On entry : 0/0
  1709 ;;		On exit  : 0/0
  1710 ;;		Unchanged: 0/0
  1711 ;; Data sizes:     COMMON   BANK0   BANK1
  1712 ;;      Params:         0       0       0
  1713 ;;      Locals:         0       0       0
  1714 ;;      Temps:          3       0       0
  1715 ;;      Totals:         3       0       0
  1716 ;;Total ram usage:        3 bytes
  1717 ;; Hardware stack levels used:    1
  1718 ;; Hardware stack levels required when called:    1
  1719 ;; This function calls:
  1720 ;;		___lbmod
  1721 ;; This function is called by:
  1722 ;;		Interrupt level 1
  1723 ;; This function uses a non-reentrant model
  1724 ;;
  1725                           
  1726  0004                     _fInterruptRoutine:	
  1727                           
  1728                           ;incstack = 0
  1729                           ; Regs used in _fInterruptRoutine: [wreg+fsr1l+fsr1h+status,2+status,0+pclath+cstack]
  1730  0004  3180               	pagesel	$
  1731  0005  0020               	movlb	0	; select bank0
  1732  0006  087F               	movf	127,w
  1733  0007  00F8               	movwf	??_fInterruptRoutine+2
  1734                           
  1735                           ;uart.c: 40: if (RCIF){
  1736  0008  1E91               	btfss	17,5	;volatile
  1737  0009  2834               	goto	i1l111
  1738                           
  1739                           ;uart.c: 41: RCIF = 0;
  1740  000A  1291               	bcf	17,5	;volatile
  1741                           
  1742                           ;uart.c: 42: if (RCSTA & 0x06){
  1743  000B  0023               	movlb	3	; select bank3
  1744  000C  081D               	movf	29,w	;volatile
  1745  000D  3906               	andlw	6
  1746  000E  1903               	btfsc	3,2
  1747  000F  2818               	goto	i1l848
  1748                           
  1749                           ;uart.c: 43: vErrorFlags = RCSTA>>1 & 0x03;
  1750  0010  361D               	lsrf	29,w	;volatile
  1751  0011  3903               	andlw	3
  1752  0012  00F6               	movwf	??_fInterruptRoutine
  1753  0013  0876               	movf	??_fInterruptRoutine,w
  1754  0014  00FA               	movwf	_vErrorFlags
  1755                           
  1756                           ;uart.c: 44: CREN = 0;
  1757  0015  121D               	bcf	29,4	;volatile
  1758                           
  1759                           ;uart.c: 45: CREN = 1;
  1760  0016  161D               	bsf	29,4	;volatile
  1761                           
  1762                           ;uart.c: 46: }else{
  1763  0017  282E               	goto	i1l854
  1764  0018                     i1l848:	
  1765                           
  1766                           ;uart.c: 47: UARTwriteIndex++;
  1767  0018  3001               	movlw	1
  1768  0019  00F6               	movwf	??_fInterruptRoutine
  1769  001A  0876               	movf	??_fInterruptRoutine,w
  1770  001B  07F9               	addwf	_UARTwriteIndex,f
  1771                           
  1772                           ;uart.c: 48: UARTwriteIndex %= 10;
  1773  001C  300A               	movlw	10
  1774  001D  00F6               	movwf	??_fInterruptRoutine
  1775  001E  0876               	movf	??_fInterruptRoutine,w
  1776  001F  00F0               	movwf	___lbmod@divisor
  1777  0020  0879               	movf	_UARTwriteIndex,w
  1778  0021  23B0               	fcall	___lbmod
  1779  0022  00F7               	movwf	??_fInterruptRoutine+1
  1780  0023  0877               	movf	??_fInterruptRoutine+1,w
  1781  0024  00F9               	movwf	_UARTwriteIndex
  1782                           
  1783                           ;uart.c: 49: UARTRxBuffer[UARTwriteIndex] = RCREG;
  1784  0025  0023               	movlb	3	; select bank3
  1785  0026  0819               	movf	25,w	;volatile
  1786  0027  00F6               	movwf	??_fInterruptRoutine
  1787  0028  0879               	movf	_UARTwriteIndex,w
  1788  0029  3E50               	addlw	_UARTRxBuffer& (0+255)
  1789  002A  0086               	movwf	6
  1790  002B  0187               	clrf	7
  1791  002C  0876               	movf	??_fInterruptRoutine,w
  1792  002D  0081               	movwf	1
  1793  002E                     i1l854:	
  1794                           
  1795                           ;uart.c: 50: }
  1796                           ;uart.c: 51: if (UARTwriteIndex == 10){
  1797  002E  0879               	movf	_UARTwriteIndex,w
  1798  002F  3A0A               	xorlw	10
  1799  0030  1D03               	skipz
  1800  0031  2834               	goto	i1l111
  1801                           
  1802                           ;uart.c: 52: vNewData = 0x01;
  1803  0032  01FB               	clrf	_vNewData
  1804  0033  0AFB               	incf	_vNewData,f
  1805  0034                     i1l111:	
  1806  0034  0878               	movf	??_fInterruptRoutine+2,w
  1807  0035  0020               	movlb	0	; select bank0
  1808  0036  00FF               	movwf	127
  1809  0037  0009               	retfie
  1810  0038                     __end_of_fInterruptRoutine:	
  1811                           
  1812                           	psect	text6
  1813  03B0                     __ptext6:	
  1814 ;; *************** function ___lbmod *****************
  1815 ;; Defined at:
  1816 ;;		line 4 in file "C:\Program Files (x86)\Microchip\xc8\v1.30\sources\common\lbmod.c"
  1817 ;; Parameters:    Size  Location     Type
  1818 ;;  dividend        1    wreg     unsigned char 
  1819 ;;  divisor         1    0[COMMON] unsigned char 
  1820 ;; Auto vars:     Size  Location     Type
  1821 ;;  dividend        1    3[COMMON] unsigned char 
  1822 ;;  rem             1    5[COMMON] unsigned char 
  1823 ;;  counter         1    4[COMMON] unsigned char 
  1824 ;; Return value:  Size  Location     Type
  1825 ;;                  1    wreg      unsigned char 
  1826 ;; Registers used:
  1827 ;;		wreg, status,2, status,0
  1828 ;; Tracked objects:
  1829 ;;		On entry : 0/0
  1830 ;;		On exit  : 0/0
  1831 ;;		Unchanged: 0/0
  1832 ;; Data sizes:     COMMON   BANK0   BANK1
  1833 ;;      Params:         1       0       0
  1834 ;;      Locals:         3       0       0
  1835 ;;      Temps:          2       0       0
  1836 ;;      Totals:         6       0       0
  1837 ;;Total ram usage:        6 bytes
  1838 ;; Hardware stack levels used:    1
  1839 ;; This function calls:
  1840 ;;		Nothing
  1841 ;; This function is called by:
  1842 ;;		_fInterruptRoutine
  1843 ;; This function uses a non-reentrant model
  1844 ;;
  1845                           
  1846                           
  1847                           ;psect for function ___lbmod
  1848  03B0                     ___lbmod:	
  1849                           
  1850                           ;incstack = 0
  1851                           ; Regs used in ___lbmod: [wreg+status,2+status,0]
  1852                           ;___lbmod@dividend stored from wreg
  1853  03B0  00F3               	movwf	___lbmod@dividend
  1854  03B1  3008               	movlw	8
  1855  03B2  00F1               	movwf	??___lbmod
  1856  03B3  0871               	movf	??___lbmod,w
  1857  03B4  00F4               	movwf	___lbmod@counter
  1858  03B5  01F5               	clrf	___lbmod@rem
  1859  03B6                     i1l812:	
  1860  03B6  0873               	movf	___lbmod@dividend,w
  1861  03B7  00F1               	movwf	??___lbmod
  1862  03B8  3007               	movlw	7
  1863  03B9                     u41_25:	
  1864  03B9  36F1               	lsrf	??___lbmod,f
  1865  03BA  0B89               	decfsz	9,f
  1866  03BB  2BB9               	goto	u41_25
  1867  03BC  3575               	lslf	___lbmod@rem,w
  1868  03BD  0471               	iorwf	??___lbmod,w
  1869  03BE  00F2               	movwf	??___lbmod+1
  1870  03BF  0872               	movf	??___lbmod+1,w
  1871  03C0  00F5               	movwf	___lbmod@rem
  1872  03C1  1003               	clrc
  1873  03C2  0DF3               	rlf	___lbmod@dividend,f
  1874  03C3  0870               	movf	___lbmod@divisor,w
  1875  03C4  0275               	subwf	___lbmod@rem,w
  1876  03C5  1C03               	skipc
  1877  03C6  2BC9               	goto	i1l443
  1878  03C7  0870               	movf	___lbmod@divisor,w
  1879  03C8  02F5               	subwf	___lbmod@rem,f
  1880  03C9                     i1l443:	
  1881  03C9  3001               	movlw	1
  1882  03CA  02F4               	subwf	___lbmod@counter,f
  1883  03CB  1D03               	btfss	3,2
  1884  03CC  2BB6               	goto	i1l812
  1885  03CD  0875               	movf	___lbmod@rem,w
  1886  03CE  0008               	return
  1887  03CF                     __end_of___lbmod:	
  1888  007E                     btemp	set	126	;btemp
  1889  007E                     wtemp	set	126
  1890  007E                     wtemp0	set	126
  1891  0080                     wtemp1	set	128
  1892  0082                     wtemp2	set	130
  1893  0084                     wtemp3	set	132
  1894  0086                     wtemp4	set	134
  1895  0088                     wtemp5	set	136
  1896  007F                     wtemp6	set	127
  1897  007E                     ttemp	set	126
  1898  007E                     ttemp0	set	126
  1899  0081                     ttemp1	set	129
  1900  0084                     ttemp2	set	132
  1901  0087                     ttemp3	set	135
  1902  007F                     ttemp4	set	127
  1903  007E                     ltemp	set	126
  1904  007E                     ltemp0	set	126
  1905  0082                     ltemp1	set	130
  1906  0086                     ltemp2	set	134
  1907  0080                     ltemp3	set	128


Data Sizes:
    Strings     0
    Constant    512
    Data        13
    BSS         59
    Persistent  0
    Stack       0

Auto Spaces:
    Space          Size  Autos    Used
    COMMON           14      9      12
    BANK0            80     16      61
    BANK1            32      0      24

Pointer List with Targets:

    None.

Critical Paths under _main in COMMON

    None.

Critical Paths under _fInterruptRoutine in COMMON

    _fInterruptRoutine->___lbmod

Critical Paths under _main in BANK0

    _main->_fPWMControl
    _fPWMControl->_fTLCwrite
    _fTLCwrite->_fSPIWrite

Critical Paths under _fInterruptRoutine in BANK0

    None.

Critical Paths under _main in BANK1

    None.

Critical Paths under _fInterruptRoutine in BANK1

    None.

Call Graph Tables:

 ---------------------------------------------------------------------------------
 (Depth) Function   	        Calls       Base Space   Used Autos Params    Refs
 ---------------------------------------------------------------------------------
 (0) _main                                                 1     1      0     520
                                             15 BANK0      1     1      0
                        _fPWMControl
 ---------------------------------------------------------------------------------
 (1) _fPWMControl                                          6     6      0     520
                                             10 BANK0      5     5      0
                             ___wmul
                          _fTLCwrite
 ---------------------------------------------------------------------------------
 (2) _fTLCwrite                                            9     9      0     209
                                              1 BANK0      9     9      0
                          _fSPIWrite
 ---------------------------------------------------------------------------------
 (3) _fSPIWrite                                            1     1      0      22
                                              0 BANK0      1     1      0
 ---------------------------------------------------------------------------------
 (2) ___wmul                                               6     2      4     198
                                              0 BANK0      6     2      4
 ---------------------------------------------------------------------------------
 Estimated maximum stack depth 3
 ---------------------------------------------------------------------------------
 (Depth) Function   	        Calls       Base Space   Used Autos Params    Refs
 ---------------------------------------------------------------------------------
 (4) _fInterruptRoutine                                    3     3      0     212
                                              6 COMMON     3     3      0
                            ___lbmod
 ---------------------------------------------------------------------------------
 (5) ___lbmod                                              6     5      1     212
                                              0 COMMON     6     5      1
 ---------------------------------------------------------------------------------
 Estimated maximum stack depth 5
 ---------------------------------------------------------------------------------

 Call Graph Graphs:

 _main (ROOT)
   _fPWMControl
     ___wmul
     _fTLCwrite
       _fSPIWrite

 _fInterruptRoutine (ROOT)
   ___lbmod

 Address spaces:
Name               Size   Autos  Total    Cost      Usage
BIGRAM              70      0       0       0        0.0%
EEDATA             100      0       0       0        0.0%
NULL                 0      0       0       0        0.0%
CODE                 0      0       0       0        0.0%
BITCOMMON            E      0       0       1        0.0%
BITSFR0              0      0       0       1        0.0%
SFR0                 0      0       0       1        0.0%
COMMON               E      9       C       2       85.7%
BITSFR1              0      0       0       2        0.0%
SFR1                 0      0       0       2        0.0%
BITSFR2              0      0       0       3        0.0%
SFR2                 0      0       0       3        0.0%
STACK                0      0       0       3        0.0%
BITSFR3              0      0       0       4        0.0%
SFR3                 0      0       0       4        0.0%
ABS                  0      0      61       4        0.0%
BITBANK0            50      0       0       5        0.0%
BITSFR4              0      0       0       5        0.0%
SFR4                 0      0       0       5        0.0%
BANK0               50     10      3D       6       76.3%
BITSFR5              0      0       0       6        0.0%
SFR5                 0      0       0       6        0.0%
BITBANK1            20      0       0       7        0.0%
BITSFR6              0      0       0       7        0.0%
SFR6                 0      0       0       7        0.0%
BANK1               20      0      18       8       75.0%
BITSFR7              0      0       0       8        0.0%
SFR7                 0      0       0       8        0.0%
BITSFR8              0      0       0       9        0.0%
SFR8                 0      0       0       9        0.0%
DATA                 0      0      61       9        0.0%
BITSFR9              0      0       0      10        0.0%
SFR9                 0      0       0      10        0.0%
BITSFR10             0      0       0      11        0.0%
SFR10                0      0       0      11        0.0%
BITSFR11             0      0       0      12        0.0%
SFR11                0      0       0      12        0.0%
BITSFR12             0      0       0      13        0.0%
SFR12                0      0       0      13        0.0%
BITSFR13             0      0       0      14        0.0%
SFR13                0      0       0      14        0.0%
BITSFR14             0      0       0      15        0.0%
SFR14                0      0       0      15        0.0%
BITSFR15             0      0       0      16        0.0%
SFR15                0      0       0      16        0.0%
BITSFR16             0      0       0      17        0.0%
SFR16                0      0       0      17        0.0%
BITSFR17             0      0       0      18        0.0%
SFR17                0      0       0      18        0.0%
BITSFR18             0      0       0      19        0.0%
SFR18                0      0       0      19        0.0%
BITSFR19             0      0       0      20        0.0%
SFR19                0      0       0      20        0.0%
BITSFR20             0      0       0      21        0.0%
SFR20                0      0       0      21        0.0%
BITSFR21             0      0       0      22        0.0%
SFR21                0      0       0      22        0.0%
BITSFR22             0      0       0      23        0.0%
SFR22                0      0       0      23        0.0%
BITSFR23             0      0       0      24        0.0%
SFR23                0      0       0      24        0.0%
BITSFR24             0      0       0      25        0.0%
SFR24                0      0       0      25        0.0%
BITSFR25             0      0       0      26        0.0%
SFR25                0      0       0      26        0.0%
BITSFR26             0      0       0      27        0.0%
SFR26                0      0       0      27        0.0%
BITSFR27             0      0       0      28        0.0%
SFR27                0      0       0      28        0.0%
BITSFR28             0      0       0      29        0.0%
SFR28                0      0       0      29        0.0%
BITSFR29             0      0       0      30        0.0%
SFR29                0      0       0      30        0.0%
BITSFR30             0      0       0      31        0.0%
SFR30                0      0       0      31        0.0%
BITSFR31             0      0       0      32        0.0%
SFR31                0      0       0      32        0.0%


Microchip Technology PIC Macro Assembler V1.30 build 55553 
Symbol Table                                                                                   Tue May 20 15:13:23 2014

               _SPITxBuffer 0020                 __CFG_CP$OFF 0000                          l13 03F0  
                        l16 0408                          l51 041B         ___wmul@multiplicand 0042  
                       l544 03D8                         l826 03D2                         l764 038D  
                       u325 030B                         u335 031A                         u345 0323  
              __CFG_CPD$OFF 0000                         u355 032C                         u365 033D  
                       u455 03D9                         u375 034F                         u465 03DE  
                       u385 0361                __CFG_BORV$LO 0000                         wreg 0009  
              __CFG_IESO$ON 0000               fSPIWrite@data 0040                __CFG_LVP$OFF 0000  
                      _CREN 0CEC                        _PIE1 0091                        _RCIF 008D  
                      _PLLR 04D6                __CFG_WRT$OFF 0000               __CFG_FCMEN$ON 0000  
                      _vBCb 005A                        _vBCg 005B                        _vBCr 005C  
                      _main 03ED                        fsr0h 0005                        fsr1h 0007  
                      fsr0l 0004                        indf0 0000                        indf1 0001  
                      fsr1l 0006                        btemp 007E                        ltemp 007E  
                      start 0038                        ttemp 007E                        wtemp 007E  
             __CFG_PLLEN$ON 0000                       ?_main 0070               __CFG_WDTE$OFF 0000  
           __end_of___lbmod 03CF                       i1l111 0034                       i1l443 03C9  
                     i1l812 03B6                       i1l854 002E                       i1l848 0018  
                     _RCREG 0199                       _RCSTA 019D                       u41_25 03B9  
                     _TXSTA 019E              __CFG_BOREN$OFF 0000                       ltemp0 007E  
                     ltemp1 0082                       ltemp2 0086                       ltemp3 0080  
                     ttemp0 007E                       ttemp1 0081                       ttemp2 0084  
                     ttemp3 0087                       ttemp4 007F                       status 0003  
                     wtemp0 007E                       wtemp1 0080                       wtemp2 0082  
                     wtemp3 0084                       wtemp4 0086                       wtemp5 0088  
                     wtemp6 007F            fTLCwrite@command 0046  __size_of_fInterruptRoutine 0034  
            __CFG_MCLRE$OFF 0000             __initialization 0039               ??_fPWMControl 004A  
              __end_of_main 0409                  fTLCwrite@c 0045                      ??_main 004F  
                    _HFIOFL 04D3                      _INTCON 000B                      _OSCCON 0099  
                    _SPBRGH 019C                      _SPBRGL 019B                      _SSP1IF 008B  
            __CFG_PWRTE$OFF 0000          __size_of_fSPIWrite 000A                      ___wmul 03CF  
            __CFG_STVREN$ON 0000                   ??___lbmod 0071          __size_of_fTLCwrite 0086  
       __end_of_fPWMControl 03B0           __end_of_FadeValue 0301             ___lbmod@divisor 0070  
   __end_of__initialization 0052             ___lbmod@counter 0074              __pcstackCOMMON 0070  
              __pidataBANK0 0409                _channel_mode 0038           __end_of_fSPIWrite 0420  
         __end_of_fTLCwrite 0387                  __pbssBANK0 0020                  __pbssBANK1 00A0  
                __pmaintext 03ED                     ?___wmul 0040                 _fPWMControl 0387  
                __pintentry 0004                     _BAUDCON 019F                     _SSP1BUF 0211  
                __stringtab 0100                     ___lbmod 03B0             __size_of___wmul 001E  
                   __ptext1 0387                     __ptext2 0301                     __ptext3 0416  
                   __ptext4 03CF                     __ptext6 03B0                     clrloop0 0421  
      end_of_initialization 0052                     init_ram 0426                     initloop 0427  
              __pstringtext 0100                fPWMControl@n 004E            __CFG_FOSC$INTOSC 0000  
          ___lbmod@dividend 0073                   _FadeValue 0101                 ___lbmod@rem 0075  
        fPWMControl@channel 004D              __end_of___wmul 03ED          fPWMControl@command 0070  
             _channel_color 00A0         start_initialization 0039                   _fSPIWrite 0416  
                 _fTLCwrite 0301                ?_fPWMControl 0070                    ??___wmul 0044  
               __pdataBANK0 0050                 __pbssCOMMON 0079                   ___latbits 0000  
             __pcstackBANK0 0040                  ?_fSPIWrite 0070                  ?_fTLCwrite 0070  
                  ?___lbmod 0070              ___wmul@product 0044                   clear_ram0 0420  
                  _SSP1CON1 0215                 _vErrorFlags 007A           ___wmul@multiplier 0040  
            _UARTwriteIndex 0079                 ??_fSPIWrite 0040                 ??_fTLCwrite 0041  
          __size_of___lbmod 001F        __size_of_fPWMControl 0029          __end_of__stringtab 0101  
                  _vNewData 007B                _UARTRxBuffer 0050               __size_of_main 001C  
                  intlevel1 0000           __CFG_CLKOUTEN$OFF 0000           _fInterruptRoutine 0004  
        ?_fInterruptRoutine 0070         ??_fInterruptRoutine 0076   __end_of_fInterruptRoutine 0038  
